target datalayout = "e-m:e-p270:32:32-p271:32:32-p272:64:64-i64:64-i128:128-f80:128-n8:16:32:64-S128"
target triple = "x86_64-pc-linux-gnu"

; Function Attrs: nounwind uwtable
define i32 @Abc_NtkFromGiaCollapse(ptr noundef %0) #0 {
  %2 = alloca i32, align 4
  %3 = alloca ptr, align 8
  %4 = alloca ptr, align 8
  %5 = alloca i32, align 4
  %6 = alloca ptr, align 8
  %7 = alloca ptr, align 8
  store ptr %0, ptr %3, align 8
  %8 = load ptr, ptr %3, align 8
  %9 = call ptr @Gia_ManToAig(ptr noundef %8, i32 noundef 0)
  store ptr %9, ptr %4, align 8
  %10 = load ptr, ptr %4, align 8
  %11 = call ptr @Abc_NtkFromAigPhase(ptr noundef %10)
  store ptr %11, ptr %6, align 8
  %12 = load ptr, ptr %4, align 8
  call void @Aig_ManStop(ptr noundef %12)
  %13 = load ptr, ptr %6, align 8
  store ptr %13, ptr %7, align 8
  %14 = call ptr @Abc_NtkCollapse(ptr noundef %13, i32 noundef 10000, i32 noundef 0, i32 noundef 1, i32 noundef 0, i32 noundef 0, i32 noundef 0)
  store ptr %14, ptr %6, align 8
  %15 = load ptr, ptr %7, align 8
  call void @Abc_NtkDelete(ptr noundef %15)
  %16 = load ptr, ptr %6, align 8
  %17 = icmp eq ptr %16, null
  br i1 %17, label %18, label %19

18:                                               ; preds = %1
  store i32 0, ptr %2, align 4
  br label %26

19:                                               ; preds = %1
  %20 = load ptr, ptr %6, align 8
  %21 = call i32 @Abc_NtkGetBddNodeNum(ptr noundef %20)
  store i32 %21, ptr %5, align 4
  %22 = load ptr, ptr %6, align 8
  call void @Abc_NtkDelete(ptr noundef %22)
  %23 = load i32, ptr %5, align 4
  %24 = icmp eq i32 %23, 0
  %25 = zext i1 %24 to i32
  store i32 %25, ptr %2, align 4
  br label %26

26:                                               ; preds = %19, %18
  %27 = load i32, ptr %2, align 4
  ret i32 %27
}