; Function Attrs: nounwind uwtable
define range(i32 0, 2) i32 @Abc_NtkFromGiaCollapse(ptr noundef %0) local_unnamed_addr #1 {
  %2 = tail call ptr @Gia_ManToAig(ptr noundef %0, i32 noundef 0) #19
  %3 = tail call ptr @Abc_NtkFromAigPhase(ptr noundef %2)
  tail call void @Aig_ManStop(ptr noundef %2) #19
  %4 = tail call ptr @Abc_NtkCollapse(ptr noundef %3, i32 noundef 10000, i32 noundef 0, i32 noundef 1, i32 noundef 0, i32 noundef 0, i32 noundef 0) #19
  tail call void @Abc_NtkDelete(ptr noundef %3) #19
  %5 = icmp eq ptr %4, null
  br i1 %5, label %10, label %6

6:                                                ; preds = %1
  %7 = tail call i32 @Abc_NtkGetBddNodeNum(ptr noundef nonnull %4) #19
  tail call void @Abc_NtkDelete(ptr noundef nonnull %4) #19
  %8 = icmp eq i32 %7, 0
  %9 = zext i1 %8 to i32
  br label %10

10:                                               ; preds = %1, %6
  %.0 = phi i32 [ %9, %6 ], [ 0, %1 ]
  ret i32 %.0
}